target datalayout = "e-m:e-p270:32:32-p271:32:32-p272:64:64-i64:64-i128:128-f80:128-n8:16:32:64-S128"
target triple = "x86_64-pc-linux-gnu"

%struct.SPS = type { i32, i32, i32, i32, i32, i32, i32, i32, i32, i32, i32, i32, i32, i32, i32, i32, i32, i32, i32, i32, i32, i32, i32, i32, i32, %struct.H2645VUI, i32, i32, i32, i32, [256 x i32], i32, i32, i32, i32, i16, [6 x [16 x i8]], [6 x [64 x i8]], i32, i32, i32, i32, i32, i32, [32 x i32], [32 x i32], i32, i32, i32, i32, i32, i32, i32, i32, [4096 x i8], i64 }
%struct.H2645VUI = type { %struct.AVRational, i32, i32, i32, i32, i32, i32, i32, i32, i32, i32, i32, i32, i32, i32, i32 }
%struct.AVRational = type { i32, i32 }
%struct.PPS = type { i32, i32, i32, i32, i32, i32, [2 x i32], i32, i32, i32, i32, [2 x i32], i32, i32, i32, i32, i32, i16, [6 x [16 x i8]], [6 x [64 x i8]], [2 x [88 x i8]], i32, [4096 x i8], i64, [6 x [88 x [16 x i32]]], [6 x [88 x [64 x i32]]], [6 x ptr], [6 x ptr], ptr }

@default_scaling4 = internal constant [2 x [16 x i8]] [[16 x i8] c"\06\0D\14\1C\0D\14\1C \14\1C %\1C %*", [16 x i8] c"\0A\0E\14\18\0E\14\18\1B\14\18\1B\1E\18\1B\1E\22"], align 16

; Function Attrs: nounwind uwtable
define internal i32 @decode_scaling_matrices(ptr noundef %0, ptr noundef %1, ptr noundef %2, i32 noundef %3, i32 noundef %4, ptr noundef %5, ptr noundef %6, ptr noundef %7) #0 {
  %9 = alloca ptr, align 8
  %10 = alloca ptr, align 8
  %11 = alloca ptr, align 8
  %12 = alloca i32, align 4
  %13 = alloca i32, align 4
  %14 = alloca ptr, align 8
  %15 = alloca ptr, align 8
  %16 = alloca ptr, align 8
  %17 = alloca i32, align 4
  %18 = alloca [4 x ptr], align 16
  %19 = alloca i32, align 4
  store ptr %0, ptr %9, align 8, !tbaa !18
  store ptr %1, ptr %10, align 8, !tbaa !22
  store ptr %2, ptr %11, align 8, !tbaa !98
  store i32 %3, ptr %12, align 4, !tbaa !9
  store i32 %4, ptr %13, align 4, !tbaa !9
  store ptr %5, ptr %14, align 8, !tbaa !99
  store ptr %6, ptr %15, align 8, !tbaa !100
  store ptr %7, ptr %16, align 8, !tbaa !100
  call void @llvm.lifetime.start.p0(i64 4, ptr %17) #8
  %20 = load i32, ptr %12, align 4, !tbaa !9
  %21 = icmp ne i32 %20, 0
  br i1 %21, label %27, label %22

22:                                               ; preds = %8
  %23 = load ptr, ptr %10, align 8, !tbaa !22
  %24 = getelementptr inbounds nuw %struct.SPS, ptr %23, i32 0, i32 34
  %25 = load i32, ptr %24, align 4, !tbaa !41
  %26 = icmp ne i32 %25, 0
  br label %27

27:                                               ; preds = %22, %8
  %28 = phi i1 [ false, %8 ], [ %26, %22 ]
  %29 = zext i1 %28 to i32
  store i32 %29, ptr %17, align 4, !tbaa !9
  call void @llvm.lifetime.start.p0(i64 32, ptr %18) #8
  %30 = load i32, ptr %17, align 4, !tbaa !9
  %31 = icmp ne i32 %30, 0
  br i1 %31, label %32, label %37

32:                                               ; preds = %27
  %33 = load ptr, ptr %10, align 8, !tbaa !22
  %34 = getelementptr inbounds nuw %struct.SPS, ptr %33, i32 0, i32 36
  %35 = getelementptr inbounds [6 x [16 x i8]], ptr %34, i64 0, i64 0
  %36 = getelementptr inbounds [16 x i8], ptr %35, i64 0, i64 0
  br label %38

37:                                               ; preds = %27
  br label %38

38:                                               ; preds = %37, %32
  %39 = phi ptr [ %36, %32 ], [ @default_scaling4, %37 ]
  store ptr %39, ptr %18, align 8, !tbaa !100
  %40 = getelementptr inbounds ptr, ptr %18, i64 1
  %41 = load i32, ptr %17, align 4, !tbaa !9
  %42 = icmp ne i32 %41, 0
  br i1 %42, label %43, label %48

43:                                               ; preds = %38
  %44 = load ptr, ptr %10, align 8, !tbaa !22
  %45 = getelementptr inbounds nuw %struct.SPS, ptr %44, i32 0, i32 36
  %46 = getelementptr inbounds [6 x [16 x i8]], ptr %45, i64 0, i64 3
  %47 = getelementptr inbounds [16 x i8], ptr %46, i64 0, i64 0
  br label %49

48:                                               ; preds = %38
  br label %49

49:                                               ; preds = %48, %43
  %50 = phi ptr [ %47, %43 ], [ getelementptr inbounds ([2 x [16 x i8]], ptr @default_scaling4, i64 0, i64 1), %48 ]
  store ptr %50, ptr %40, align 8, !tbaa !100
  %51 = getelementptr inbounds ptr, ptr %18, i64 2
  %52 = load i32, ptr %17, align 4, !tbaa !9
  %53 = icmp ne i32 %52, 0
  br i1 %53, label %54, label %59

54:                                               ; preds = %49
  %55 = load ptr, ptr %10, align 8, !tbaa !22
  %56 = getelementptr inbounds nuw %struct.SPS, ptr %55, i32 0, i32 37
  %57 = getelementptr inbounds [6 x [64 x i8]], ptr %56, i64 0, i64 0
  %58 = getelementptr inbounds [64 x i8], ptr %57, i64 0, i64 0
  br label %60

59:                                               ; preds = %49
  br label %60

60:                                               ; preds = %59, %54
  %61 = phi ptr [ %58, %54 ], [ @default_scaling8, %59 ]
  store ptr %61, ptr %51, align 8, !tbaa !100
  %62 = getelementptr inbounds ptr, ptr %18, i64 3
  %63 = load i32, ptr %17, align 4, !tbaa !9
  %64 = icmp ne i32 %63, 0
  br i1 %64, label %65, label %70

65:                                               ; preds = %60
  %66 = load ptr, ptr %10, align 8, !tbaa !22
  %67 = getelementptr inbounds nuw %struct.SPS, ptr %66, i32 0, i32 37
  %68 = getelementptr inbounds [6 x [64 x i8]], ptr %67, i64 0, i64 3
  %69 = getelementptr inbounds [64 x i8], ptr %68, i64 0, i64 0
  br label %71

70:                                               ; preds = %60
  br label %71

71:                                               ; preds = %70, %65
  %72 = phi ptr [ %69, %65 ], [ getelementptr inbounds ([2 x [64 x i8]], ptr @default_scaling8, i64 0, i64 1), %70 ]
  store ptr %72, ptr %62, align 8, !tbaa !100
  call void @llvm.lifetime.start.p0(i64 4, ptr %19) #8
  store i32 0, ptr %19, align 4, !tbaa !9
  %73 = load ptr, ptr %14, align 8, !tbaa !99
  store i16 0, ptr %73, align 2, !tbaa !101
  %74 = load i32, ptr %13, align 4, !tbaa !9
  %75 = icmp ne i32 %74, 0
  br i1 %75, label %76, label %225

76:                                               ; preds = %71
  %77 = load ptr, ptr %9, align 8, !tbaa !18
  %78 = load ptr, ptr %15, align 8, !tbaa !100
  %79 = getelementptr inbounds [16 x i8], ptr %78, i64 0
  %80 = getelementptr inbounds [16 x i8], ptr %79, i64 0, i64 0
  %81 = getelementptr inbounds [4 x ptr], ptr %18, i64 0, i64 0
  %82 = load ptr, ptr %81, align 16, !tbaa !100
  %83 = load ptr, ptr %14, align 8, !tbaa !99
  %84 = call i32 @decode_scaling_list(ptr noundef %77, ptr noundef %80, i32 noundef 16, ptr noundef @default_scaling4, ptr noundef %82, ptr noundef %83, i32 noundef 0)
  %85 = load i32, ptr %19, align 4, !tbaa !9
  %86 = or i32 %85, %84
  store i32 %86, ptr %19, align 4, !tbaa !9
  %87 = load ptr, ptr %9, align 8, !tbaa !18
  %88 = load ptr, ptr %15, align 8, !tbaa !100
  %89 = getelementptr inbounds [16 x i8], ptr %88, i64 1
  %90 = getelementptr inbounds [16 x i8], ptr %89, i64 0, i64 0
  %91 = load ptr, ptr %15, align 8, !tbaa !100
  %92 = getelementptr inbounds [16 x i8], ptr %91, i64 0
  %93 = getelementptr inbounds [16 x i8], ptr %92, i64 0, i64 0
  %94 = load ptr, ptr %14, align 8, !tbaa !99
  %95 = call i32 @decode_scaling_list(ptr noundef %87, ptr noundef %90, i32 noundef 16, ptr noundef @default_scaling4, ptr noundef %93, ptr noundef %94, i32 noundef 1)
  %96 = load i32, ptr %19, align 4, !tbaa !9
  %97 = or i32 %96, %95
  store i32 %97, ptr %19, align 4, !tbaa !9
  %98 = load ptr, ptr %9, align 8, !tbaa !18
  %99 = load ptr, ptr %15, align 8, !tbaa !100
  %100 = getelementptr inbounds [16 x i8], ptr %99, i64 2
  %101 = getelementptr inbounds [16 x i8], ptr %100, i64 0, i64 0
  %102 = load ptr, ptr %15, align 8, !tbaa !100
  %103 = getelementptr inbounds [16 x i8], ptr %102, i64 1
  %104 = getelementptr inbounds [16 x i8], ptr %103, i64 0, i64 0
  %105 = load ptr, ptr %14, align 8, !tbaa !99
  %106 = call i32 @decode_scaling_list(ptr noundef %98, ptr noundef %101, i32 noundef 16, ptr noundef @default_scaling4, ptr noundef %104, ptr noundef %105, i32 noundef 2)
  %107 = load i32, ptr %19, align 4, !tbaa !9
  %108 = or i32 %107, %106
  store i32 %108, ptr %19, align 4, !tbaa !9
  %109 = load ptr, ptr %9, align 8, !tbaa !18
  %110 = load ptr, ptr %15, align 8, !tbaa !100
  %111 = getelementptr inbounds [16 x i8], ptr %110, i64 3
  %112 = getelementptr inbounds [16 x i8], ptr %111, i64 0, i64 0
  %113 = getelementptr inbounds [4 x ptr], ptr %18, i64 0, i64 1
  %114 = load ptr, ptr %113, align 8, !tbaa !100
  %115 = load ptr, ptr %14, align 8, !tbaa !99
  %116 = call i32 @decode_scaling_list(ptr noundef %109, ptr noundef %112, i32 noundef 16, ptr noundef getelementptr inbounds ([2 x [16 x i8]], ptr @default_scaling4, i64 0, i64 1), ptr noundef %114, ptr noundef %115, i32 noundef 3)
  %117 = load i32, ptr %19, align 4, !tbaa !9
  %118 = or i32 %117, %116
  store i32 %118, ptr %19, align 4, !tbaa !9
  %119 = load ptr, ptr %9, align 8, !tbaa !18
  %120 = load ptr, ptr %15, align 8, !tbaa !100
  %121 = getelementptr inbounds [16 x i8], ptr %120, i64 4
  %122 = getelementptr inbounds [16 x i8], ptr %121, i64 0, i64 0
  %123 = load ptr, ptr %15, align 8, !tbaa !100
  %124 = getelementptr inbounds [16 x i8], ptr %123, i64 3
  %125 = getelementptr inbounds [16 x i8], ptr %124, i64 0, i64 0
  %126 = load ptr, ptr %14, align 8, !tbaa !99
  %127 = call i32 @decode_scaling_list(ptr noundef %119, ptr noundef %122, i32 noundef 16, ptr noundef getelementptr inbounds ([2 x [16 x i8]], ptr @default_scaling4, i64 0, i64 1), ptr noundef %125, ptr noundef %126, i32 noundef 4)
  %128 = load i32, ptr %19, align 4, !tbaa !9
  %129 = or i32 %128, %127
  store i32 %129, ptr %19, align 4, !tbaa !9
  %130 = load ptr, ptr %9, align 8, !tbaa !18
  %131 = load ptr, ptr %15, align 8, !tbaa !100
  %132 = getelementptr inbounds [16 x i8], ptr %131, i64 5
  %133 = getelementptr inbounds [16 x i8], ptr %132, i64 0, i64 0
  %134 = load ptr, ptr %15, align 8, !tbaa !100
  %135 = getelementptr inbounds [16 x i8], ptr %134, i64 4
  %136 = getelementptr inbounds [16 x i8], ptr %135, i64 0, i64 0
  %137 = load ptr, ptr %14, align 8, !tbaa !99
  %138 = call i32 @decode_scaling_list(ptr noundef %130, ptr noundef %133, i32 noundef 16, ptr noundef getelementptr inbounds ([2 x [16 x i8]], ptr @default_scaling4, i64 0, i64 1), ptr noundef %136, ptr noundef %137, i32 noundef 5)
  %139 = load i32, ptr %19, align 4, !tbaa !9
  %140 = or i32 %139, %138
  store i32 %140, ptr %19, align 4, !tbaa !9
  %141 = load i32, ptr %12, align 4, !tbaa !9
  %142 = icmp ne i32 %141, 0
  br i1 %142, label %148, label %143

143:                                              ; preds = %76
  %144 = load ptr, ptr %11, align 8, !tbaa !98
  %145 = getelementptr inbounds nuw %struct.PPS, ptr %144, i32 0, i32 15
  %146 = load i32, ptr %145, align 4, !tbaa !102
  %147 = icmp ne i32 %146, 0
  br i1 %147, label %148, label %219

148:                                              ; preds = %143, %76
  %149 = load ptr, ptr %9, align 8, !tbaa !18
  %150 = load ptr, ptr %16, align 8, !tbaa !100
  %151 = getelementptr inbounds [64 x i8], ptr %150, i64 0
  %152 = getelementptr inbounds [64 x i8], ptr %151, i64 0, i64 0
  %153 = getelementptr inbounds [4 x ptr], ptr %18, i64 0, i64 2
  %154 = load ptr, ptr %153, align 16, !tbaa !100
  %155 = load ptr, ptr %14, align 8, !tbaa !99
  %156 = call i32 @decode_scaling_list(ptr noundef %149, ptr noundef %152, i32 noundef 64, ptr noundef @default_scaling8, ptr noundef %154, ptr noundef %155, i32 noundef 6)
  %157 = load i32, ptr %19, align 4, !tbaa !9
  %158 = or i32 %157, %156
  store i32 %158, ptr %19, align 4, !tbaa !9
  %159 = load ptr, ptr %9, align 8, !tbaa !18
  %160 = load ptr, ptr %16, align 8, !tbaa !100
  %161 = getelementptr inbounds [64 x i8], ptr %160, i64 3
  %162 = getelementptr inbounds [64 x i8], ptr %161, i64 0, i64 0
  %163 = getelementptr inbounds [4 x ptr], ptr %18, i64 0, i64 3
  %164 = load ptr, ptr %163, align 8, !tbaa !100
  %165 = load ptr, ptr %14, align 8, !tbaa !99
  %166 = call i32 @decode_scaling_list(ptr noundef %159, ptr noundef %162, i32 noundef 64, ptr noundef getelementptr inbounds ([2 x [64 x i8]], ptr @default_scaling8, i64 0, i64 1), ptr noundef %164, ptr noundef %165, i32 noundef 7)
  %167 = load i32, ptr %19, align 4, !tbaa !9
  %168 = or i32 %167, %166
  store i32 %168, ptr %19, align 4, !tbaa !9
  %169 = load ptr, ptr %10, align 8, !tbaa !22
  %170 = getelementptr inbounds nuw %struct.SPS, ptr %169, i32 0, i32 3
  %171 = load i32, ptr %170, align 4, !tbaa !43
  %172 = icmp eq i32 %171, 3
  br i1 %172, label %173, label %218

173:                                              ; preds = %148
  %174 = load ptr, ptr %9, align 8, !tbaa !18
  %175 = load ptr, ptr %16, align 8, !tbaa !100
  %176 = getelementptr inbounds [64 x i8], ptr %175, i64 1
  %177 = getelementptr inbounds [64 x i8], ptr %176, i64 0, i64 0
  %178 = load ptr, ptr %16, align 8, !tbaa !100
  %179 = getelementptr inbounds [64 x i8], ptr %178, i64 0
  %180 = getelementptr inbounds [64 x i8], ptr %179, i64 0, i64 0
  %181 = load ptr, ptr %14, align 8, !tbaa !99
  %182 = call i32 @decode_scaling_list(ptr noundef %174, ptr noundef %177, i32 noundef 64, ptr noundef @default_scaling8, ptr noundef %180, ptr noundef %181, i32 noundef 8)
  %183 = load i32, ptr %19, align 4, !tbaa !9
  %184 = or i32 %183, %182
  store i32 %184, ptr %19, align 4, !tbaa !9
  %185 = load ptr, ptr %9, align 8, !tbaa !18
  %186 = load ptr, ptr %16, align 8, !tbaa !100
  %187 = getelementptr inbounds [64 x i8], ptr %186, i64 4
  %188 = getelementptr inbounds [64 x i8], ptr %187, i64 0, i64 0
  %189 = load ptr, ptr %16, align 8, !tbaa !100
  %190 = getelementptr inbounds [64 x i8], ptr %189, i64 3
  %191 = getelementptr inbounds [64 x i8], ptr %190, i64 0, i64 0
  %192 = load ptr, ptr %14, align 8, !tbaa !99
  %193 = call i32 @decode_scaling_list(ptr noundef %185, ptr noundef %188, i32 noundef 64, ptr noundef getelementptr inbounds ([2 x [64 x i8]], ptr @default_scaling8, i64 0, i64 1), ptr noundef %191, ptr noundef %192, i32 noundef 9)
  %194 = load i32, ptr %19, align 4, !tbaa !9
  %195 = or i32 %194, %193
  store i32 %195, ptr %19, align 4, !tbaa !9
  %196 = load ptr, ptr %9, align 8, !tbaa !18
  %197 = load ptr, ptr %16, align 8, !tbaa !100
  %198 = getelementptr inbounds [64 x i8], ptr %197, i64 2
  %199 = getelementptr inbounds [64 x i8], ptr %198, i64 0, i64 0
  %200 = load ptr, ptr %16, align 8, !tbaa !100
  %201 = getelementptr inbounds [64 x i8], ptr %200, i64 1
  %202 = getelementptr inbounds [64 x i8], ptr %201, i64 0, i64 0
  %203 = load ptr, ptr %14, align 8, !tbaa !99
  %204 = call i32 @decode_scaling_list(ptr noundef %196, ptr noundef %199, i32 noundef 64, ptr noundef @default_scaling8, ptr noundef %202, ptr noundef %203, i32 noundef 10)
  %205 = load i32, ptr %19, align 4, !tbaa !9
  %206 = or i32 %205, %204
  store i32 %206, ptr %19, align 4, !tbaa !9
  %207 = load ptr, ptr %9, align 8, !tbaa !18
  %208 = load ptr, ptr %16, align 8, !tbaa !100
  %209 = getelementptr inbounds [64 x i8], ptr %208, i64 5
  %210 = getelementptr inbounds [64 x i8], ptr %209, i64 0, i64 0
  %211 = load ptr, ptr %16, align 8, !tbaa !100
  %212 = getelementptr inbounds [64 x i8], ptr %211, i64 4
  %213 = getelementptr inbounds [64 x i8], ptr %212, i64 0, i64 0
  %214 = load ptr, ptr %14, align 8, !tbaa !99
  %215 = call i32 @decode_scaling_list(ptr noundef %207, ptr noundef %210, i32 noundef 64, ptr noundef getelementptr inbounds ([2 x [64 x i8]], ptr @default_scaling8, i64 0, i64 1), ptr noundef %213, ptr noundef %214, i32 noundef 11)
  %216 = load i32, ptr %19, align 4, !tbaa !9
  %217 = or i32 %216, %215
  store i32 %217, ptr %19, align 4, !tbaa !9
  br label %218

218:                                              ; preds = %173, %148
  br label %219

219:                                              ; preds = %218, %143
  %220 = load i32, ptr %19, align 4, !tbaa !9
  %221 = icmp ne i32 %220, 0
  br i1 %221, label %224, label %222

222:                                              ; preds = %219
  %223 = load i32, ptr %12, align 4, !tbaa !9
  store i32 %223, ptr %19, align 4, !tbaa !9
  br label %224

224:                                              ; preds = %222, %219
  br label %225

225:                                              ; preds = %224, %71
  %226 = load i32, ptr %19, align 4, !tbaa !9
  call void @llvm.lifetime.end.p0(i64 4, ptr %19) #8
  call void @llvm.lifetime.end.p0(i64 32, ptr %18) #8
  call void @llvm.lifetime.end.p0(i64 4, ptr %17) #8
  ret i32 %226
}