; Function Attrs: nounwind uwtable
define internal fastcc i32 @decode_scaling_matrices(ptr noundef captures(none) %0, ptr noundef readonly captures(none) %1, ptr noundef readonly captures(none) %2, i32 noundef range(i32 0, 2) %3, i32 noundef %4, ptr noundef captures(none) initializes((0, 2)) %5, ptr noundef captures(none) %6, ptr noundef captures(none) %7) unnamed_addr #0 {
  %.not = icmp eq i32 %3, 0
  br i1 %.not, label %9, label %.thread78

9:                                                ; preds = %8
  %10 = getelementptr inbounds nuw i8, ptr %1, i64 1220
  %11 = load i32, ptr %10, align 4, !tbaa !36
  %.fr = freeze i32 %11
  %.not82 = icmp eq i32 %.fr, 0
  br i1 %.not82, label %.thread78, label %12

12:                                               ; preds = %9
  %13 = getelementptr inbounds nuw i8, ptr %1, i64 1322
  %14 = getelementptr inbounds nuw i8, ptr %1, i64 1514
  br label %.thread78

.thread78:                                        ; preds = %9, %12, %8
  %15 = phi ptr [ @default_scaling8, %8 ], [ %13, %12 ], [ @default_scaling8, %9 ]
  %16 = phi i1 [ false, %8 ], [ true, %12 ], [ false, %9 ]
  %17 = phi ptr [ getelementptr inbounds nuw (i8, ptr @default_scaling8, i64 64), %8 ], [ %14, %12 ], [ getelementptr inbounds nuw (i8, ptr @default_scaling8, i64 64), %9 ]
  store i16 0, ptr %5, align 2, !tbaa !91
  %.not73 = icmp eq i32 %4, 0
  br i1 %.not73, label %65, label %18

18:                                               ; preds = %.thread78
  %19 = getelementptr inbounds nuw i8, ptr %1, i64 1274
  %20 = select i1 %16, ptr %19, ptr getelementptr inbounds nuw (i8, ptr @default_scaling4, i64 16)
  %21 = getelementptr inbounds nuw i8, ptr %1, i64 1226
  %22 = select i1 %16, ptr %21, ptr @default_scaling4
  %23 = tail call fastcc i32 @decode_scaling_list(ptr noundef %0, ptr noundef %6, i32 noundef 16, ptr noundef nonnull @default_scaling4, ptr noundef nonnull %22, ptr noundef nonnull %5, i32 noundef 0)
  %24 = getelementptr inbounds nuw i8, ptr %6, i64 16
  %25 = tail call fastcc i32 @decode_scaling_list(ptr noundef %0, ptr noundef nonnull %24, i32 noundef 16, ptr noundef nonnull @default_scaling4, ptr noundef %6, ptr noundef nonnull %5, i32 noundef 1)
  %26 = or i32 %25, %23
  %27 = getelementptr inbounds nuw i8, ptr %6, i64 32
  %28 = tail call fastcc i32 @decode_scaling_list(ptr noundef %0, ptr noundef nonnull %27, i32 noundef 16, ptr noundef nonnull @default_scaling4, ptr noundef nonnull %24, ptr noundef nonnull %5, i32 noundef 2)
  %29 = or i32 %26, %28
  %30 = getelementptr inbounds nuw i8, ptr %6, i64 48
  %31 = tail call fastcc i32 @decode_scaling_list(ptr noundef %0, ptr noundef nonnull %30, i32 noundef 16, ptr noundef nonnull getelementptr inbounds nuw (i8, ptr @default_scaling4, i64 16), ptr noundef nonnull %20, ptr noundef nonnull %5, i32 noundef 3)
  %32 = or i32 %29, %31
  %33 = getelementptr inbounds nuw i8, ptr %6, i64 64
  %34 = tail call fastcc i32 @decode_scaling_list(ptr noundef %0, ptr noundef nonnull %33, i32 noundef 16, ptr noundef nonnull getelementptr inbounds nuw (i8, ptr @default_scaling4, i64 16), ptr noundef nonnull %30, ptr noundef nonnull %5, i32 noundef 4)
  %35 = or i32 %32, %34
  %36 = getelementptr inbounds nuw i8, ptr %6, i64 80
  %37 = tail call fastcc i32 @decode_scaling_list(ptr noundef %0, ptr noundef nonnull %36, i32 noundef 16, ptr noundef nonnull getelementptr inbounds nuw (i8, ptr @default_scaling4, i64 16), ptr noundef nonnull %33, ptr noundef nonnull %5, i32 noundef 5)
  %38 = or i32 %35, %37
  br i1 %.not, label %39, label %42

39:                                               ; preds = %18
  %40 = getelementptr inbounds nuw i8, ptr %2, i64 68
  %41 = load i32, ptr %40, align 4, !tbaa !92
  %.not74 = icmp eq i32 %41, 0
  br i1 %.not74, label %64, label %42

42:                                               ; preds = %39, %18
  %43 = tail call fastcc i32 @decode_scaling_list(ptr noundef %0, ptr noundef %7, i32 noundef 64, ptr noundef nonnull @default_scaling8, ptr noundef nonnull %15, ptr noundef nonnull %5, i32 noundef 6)
  %44 = getelementptr inbounds nuw i8, ptr %7, i64 192
  %45 = tail call fastcc i32 @decode_scaling_list(ptr noundef %0, ptr noundef nonnull %44, i32 noundef 64, ptr noundef nonnull getelementptr inbounds nuw (i8, ptr @default_scaling8, i64 64), ptr noundef nonnull %17, ptr noundef nonnull %5, i32 noundef 7)
  %46 = or i32 %43, %45
  %47 = or i32 %46, %38
  %48 = getelementptr inbounds nuw i8, ptr %1, i64 12
  %49 = load i32, ptr %48, align 4, !tbaa !38
  %50 = icmp eq i32 %49, 3
  br i1 %50, label %51, label %64

51:                                               ; preds = %42
  %52 = getelementptr inbounds nuw i8, ptr %7, i64 64
  %53 = tail call fastcc i32 @decode_scaling_list(ptr noundef %0, ptr noundef nonnull %52, i32 noundef 64, ptr noundef nonnull @default_scaling8, ptr noundef nonnull %7, ptr noundef nonnull %5, i32 noundef 8)
  %54 = getelementptr inbounds nuw i8, ptr %7, i64 256
  %55 = tail call fastcc i32 @decode_scaling_list(ptr noundef %0, ptr noundef nonnull %54, i32 noundef 64, ptr noundef nonnull getelementptr inbounds nuw (i8, ptr @default_scaling8, i64 64), ptr noundef nonnull %44, ptr noundef nonnull %5, i32 noundef 9)
  %56 = getelementptr inbounds nuw i8, ptr %7, i64 128
  %57 = tail call fastcc i32 @decode_scaling_list(ptr noundef %0, ptr noundef nonnull %56, i32 noundef 64, ptr noundef nonnull @default_scaling8, ptr noundef nonnull %52, ptr noundef nonnull %5, i32 noundef 10)
  %58 = getelementptr inbounds nuw i8, ptr %7, i64 320
  %59 = tail call fastcc i32 @decode_scaling_list(ptr noundef %0, ptr noundef nonnull %58, i32 noundef 64, ptr noundef nonnull getelementptr inbounds nuw (i8, ptr @default_scaling8, i64 64), ptr noundef nonnull %54, ptr noundef nonnull %5, i32 noundef 11)
  %60 = or i32 %53, %55
  %61 = or i32 %60, %57
  %62 = or i32 %61, %59
  %63 = or i32 %62, %47
  br label %64

64:                                               ; preds = %42, %51, %39
  %.1 = phi i32 [ %63, %51 ], [ %47, %42 ], [ %38, %39 ]
  %.not75 = icmp eq i32 %.1, 0
  %spec.select = select i1 %.not75, i32 %3, i32 %.1
  br label %65

65:                                               ; preds = %64, %.thread78
  %.0 = phi i32 [ 0, %.thread78 ], [ %spec.select, %64 ]
  ret i32 %.0
}